#include <math.h>
#include <stdio.h>
#include <stdlib.h>
#include <string.h>

int main()
{
    int n,i;
    double a=1.0;
    scanf("%d",&n);
    for(i=1;i<=n;i++){
       a=a*2;
    }
    printf("%.0lf",a);
    scanf("%d",&n);
    return 0;
}
